target datalayout = "e-m:e-p270:32:32-p271:32:32-p272:64:64-i64:64-i128:128-f80:128-n8:16:32:64-S128"
target triple = "x86_64-pc-linux-gnu"

%struct.QualCost = type { double, double }
%struct.List = type { i32, i32, i32, ptr, [0 x %union.ListCell] }
%union.ListCell = type { ptr }
%struct.RestrictInfo = type { i32, ptr, i8, i8, i8, i8, i8, i8, i32, i32, i32, ptr, ptr, ptr, ptr, ptr, ptr, ptr, i32, ptr, %struct.QualCost, double, double, ptr, ptr, ptr, ptr, ptr, ptr, i8, i32, double, double, double, double, i32, i32 }
%struct.BoolExpr = type { %struct.Expr, i32, ptr, i32 }
%struct.Expr = type { i32 }
%struct.Node = type { i32 }
%struct.BooleanTest = type { %struct.Expr, ptr, i32, i32 }
%struct.IndexClause = type { i32, ptr, ptr, i8, i16, ptr }

; Function Attrs: inlinehint nounwind uwtable
define internal ptr @list_nth_cell(ptr noundef %0, i32 noundef %1) #4 {
  %3 = alloca ptr, align 8
  %4 = alloca i32, align 4
  store ptr %0, ptr %3, align 8
  store i32 %1, ptr %4, align 4
  %5 = load ptr, ptr %3, align 8
  %6 = getelementptr inbounds nuw %struct.List, ptr %5, i32 0, i32 3
  %7 = load ptr, ptr %6, align 8
  %8 = load i32, ptr %4, align 4
  %9 = sext i32 %8 to i64
  %10 = getelementptr inbounds %union.ListCell, ptr %7, i64 %9
  ret ptr %10
}

; Function Attrs: inlinehint nounwind uwtable
define internal ptr @newNode(i64 noundef %0, i32 noundef %1) #4 {
  %3 = alloca i64, align 8
  %4 = alloca i32, align 4
  %5 = alloca ptr, align 8
  store i64 %0, ptr %3, align 8
  store i32 %1, ptr %4, align 4
  call void @llvm.lifetime.start.p0(i64 8, ptr %5) #7
  %6 = load i64, ptr %3, align 8
  %7 = call ptr @palloc0(i64 noundef %6)
  store ptr %7, ptr %5, align 8
  %8 = load i32, ptr %4, align 4
  %9 = load ptr, ptr %5, align 8
  %10 = getelementptr inbounds nuw %struct.Node, ptr %9, i32 0, i32 0
  store i32 %8, ptr %10, align 4
  %11 = load ptr, ptr %5, align 8
  call void @llvm.lifetime.end.p0(i64 8, ptr %5) #7
  ret ptr %11
}

; Function Attrs: inlinehint nounwind uwtable
define internal ptr @get_notclausearg(ptr noundef %0) #4 {
  %2 = alloca ptr, align 8
  store ptr %0, ptr %2, align 8
  %3 = load ptr, ptr %2, align 8
  %4 = getelementptr inbounds nuw %struct.BoolExpr, ptr %3, i32 0, i32 2
  %5 = load ptr, ptr %4, align 8
  %6 = call ptr @list_nth_cell(ptr noundef %5, i32 noundef 0)
  %7 = load ptr, ptr %6, align 8
  ret ptr %7
}

; Function Attrs: inlinehint nounwind uwtable
define internal zeroext i1 @is_notclause(ptr noundef %0) #4 {
  %2 = alloca ptr, align 8
  store ptr %0, ptr %2, align 8
  %3 = load ptr, ptr %2, align 8
  %4 = icmp ne ptr %3, null
  br i1 %4, label %5, label %15

5:                                                ; preds = %1
  %6 = load ptr, ptr %2, align 8
  %7 = getelementptr inbounds nuw %struct.Node, ptr %6, i32 0, i32 0
  %8 = load i32, ptr %7, align 4
  %9 = icmp eq i32 %8, 21
  br i1 %9, label %10, label %15

10:                                               ; preds = %5
  %11 = load ptr, ptr %2, align 8
  %12 = getelementptr inbounds nuw %struct.BoolExpr, ptr %11, i32 0, i32 1
  %13 = load i32, ptr %12, align 4
  %14 = icmp eq i32 %13, 2
  br label %15

15:                                               ; preds = %10, %5, %1
  %16 = phi i1 [ false, %5 ], [ false, %1 ], [ %14, %10 ]
  ret i1 %16
}

; Function Attrs: nounwind uwtable
define internal ptr @match_boolean_index_clause(ptr noundef %0, ptr noundef %1, i32 noundef %2, ptr noundef %3) #0 {
  %5 = alloca ptr, align 8
  %6 = alloca ptr, align 8
  %7 = alloca ptr, align 8
  %8 = alloca i32, align 4
  %9 = alloca ptr, align 8
  %10 = alloca ptr, align 8
  %11 = alloca ptr, align 8
  %12 = alloca ptr, align 8
  %13 = alloca ptr, align 8
  %14 = alloca ptr, align 8
  %15 = alloca ptr, align 8
  %16 = alloca %union.ListCell, align 8
  %17 = alloca i32, align 4
  store ptr %0, ptr %6, align 8
  store ptr %1, ptr %7, align 8
  store i32 %2, ptr %8, align 4
  store ptr %3, ptr %9, align 8
  call void @llvm.lifetime.start.p0(i64 8, ptr %10) #7
  %18 = load ptr, ptr %7, align 8
  %19 = getelementptr inbounds nuw %struct.RestrictInfo, ptr %18, i32 0, i32 1
  %20 = load ptr, ptr %19, align 8
  store ptr %20, ptr %10, align 8
  call void @llvm.lifetime.start.p0(i64 8, ptr %11) #7
  store ptr null, ptr %11, align 8
  %21 = load ptr, ptr %10, align 8
  %22 = load i32, ptr %8, align 4
  %23 = load ptr, ptr %9, align 8
  %24 = call zeroext i1 @match_index_to_operand(ptr noundef %21, i32 noundef %22, ptr noundef %23)
  br i1 %24, label %25, label %29

25:                                               ; preds = %4
  %26 = load ptr, ptr %10, align 8
  %27 = call ptr @makeBoolConst(i1 noundef zeroext true, i1 noundef zeroext false)
  %28 = call ptr @make_opclause(i32 noundef 91, i32 noundef 16, i1 noundef zeroext false, ptr noundef %26, ptr noundef %27, i32 noundef 0, i32 noundef 0)
  store ptr %28, ptr %11, align 8
  br label %88

29:                                               ; preds = %4
  %30 = load ptr, ptr %10, align 8
  %31 = call zeroext i1 @is_notclause(ptr noundef %30)
  br i1 %31, label %32, label %44

32:                                               ; preds = %29
  call void @llvm.lifetime.start.p0(i64 8, ptr %12) #7
  %33 = load ptr, ptr %10, align 8
  %34 = call ptr @get_notclausearg(ptr noundef %33)
  store ptr %34, ptr %12, align 8
  %35 = load ptr, ptr %12, align 8
  %36 = load i32, ptr %8, align 4
  %37 = load ptr, ptr %9, align 8
  %38 = call zeroext i1 @match_index_to_operand(ptr noundef %35, i32 noundef %36, ptr noundef %37)
  br i1 %38, label %39, label %43

39:                                               ; preds = %32
  %40 = load ptr, ptr %12, align 8
  %41 = call ptr @makeBoolConst(i1 noundef zeroext false, i1 noundef zeroext false)
  %42 = call ptr @make_opclause(i32 noundef 91, i32 noundef 16, i1 noundef zeroext false, ptr noundef %40, ptr noundef %41, i32 noundef 0, i32 noundef 0)
  store ptr %42, ptr %11, align 8
  br label %43

43:                                               ; preds = %39, %32
  call void @llvm.lifetime.end.p0(i64 8, ptr %12) #7
  br label %87

44:                                               ; preds = %29
  %45 = load ptr, ptr %10, align 8
  %46 = icmp ne ptr %45, null
  br i1 %46, label %47, label %86

47:                                               ; preds = %44
  %48 = load ptr, ptr %10, align 8
  %49 = getelementptr inbounds nuw %struct.Node, ptr %48, i32 0, i32 0
  %50 = load i32, ptr %49, align 4
  %51 = icmp eq i32 %50, 53
  br i1 %51, label %52, label %86

52:                                               ; preds = %47
  call void @llvm.lifetime.start.p0(i64 8, ptr %13) #7
  %53 = load ptr, ptr %10, align 8
  store ptr %53, ptr %13, align 8
  call void @llvm.lifetime.start.p0(i64 8, ptr %14) #7
  %54 = load ptr, ptr %13, align 8
  %55 = getelementptr inbounds nuw %struct.BooleanTest, ptr %54, i32 0, i32 1
  %56 = load ptr, ptr %55, align 8
  store ptr %56, ptr %14, align 8
  %57 = load ptr, ptr %13, align 8
  %58 = getelementptr inbounds nuw %struct.BooleanTest, ptr %57, i32 0, i32 2
  %59 = load i32, ptr %58, align 8
  %60 = icmp eq i32 %59, 0
  br i1 %60, label %61, label %70

61:                                               ; preds = %52
  %62 = load ptr, ptr %14, align 8
  %63 = load i32, ptr %8, align 4
  %64 = load ptr, ptr %9, align 8
  %65 = call zeroext i1 @match_index_to_operand(ptr noundef %62, i32 noundef %63, ptr noundef %64)
  br i1 %65, label %66, label %70

66:                                               ; preds = %61
  %67 = load ptr, ptr %14, align 8
  %68 = call ptr @makeBoolConst(i1 noundef zeroext true, i1 noundef zeroext false)
  %69 = call ptr @make_opclause(i32 noundef 91, i32 noundef 16, i1 noundef zeroext false, ptr noundef %67, ptr noundef %68, i32 noundef 0, i32 noundef 0)
  store ptr %69, ptr %11, align 8
  br label %85

70:                                               ; preds = %61, %52
  %71 = load ptr, ptr %13, align 8
  %72 = getelementptr inbounds nuw %struct.BooleanTest, ptr %71, i32 0, i32 2
  %73 = load i32, ptr %72, align 8
  %74 = icmp eq i32 %73, 2
  br i1 %74, label %75, label %84

75:                                               ; preds = %70
  %76 = load ptr, ptr %14, align 8
  %77 = load i32, ptr %8, align 4
  %78 = load ptr, ptr %9, align 8
  %79 = call zeroext i1 @match_index_to_operand(ptr noundef %76, i32 noundef %77, ptr noundef %78)
  br i1 %79, label %80, label %84

80:                                               ; preds = %75
  %81 = load ptr, ptr %14, align 8
  %82 = call ptr @makeBoolConst(i1 noundef zeroext false, i1 noundef zeroext false)
  %83 = call ptr @make_opclause(i32 noundef 91, i32 noundef 16, i1 noundef zeroext false, ptr noundef %81, ptr noundef %82, i32 noundef 0, i32 noundef 0)
  store ptr %83, ptr %11, align 8
  br label %84

84:                                               ; preds = %80, %75, %70
  br label %85

85:                                               ; preds = %84, %66
  call void @llvm.lifetime.end.p0(i64 8, ptr %14) #7
  call void @llvm.lifetime.end.p0(i64 8, ptr %13) #7
  br label %86

86:                                               ; preds = %85, %47, %44
  br label %87

87:                                               ; preds = %86, %43
  br label %88

88:                                               ; preds = %87, %25
  %89 = load ptr, ptr %11, align 8
  %90 = icmp ne ptr %89, null
  br i1 %90, label %91, label %113

91:                                               ; preds = %88
  call void @llvm.lifetime.start.p0(i64 8, ptr %15) #7
  %92 = call ptr @newNode(i64 noundef 40, i32 noundef 280)
  store ptr %92, ptr %15, align 8
  %93 = load ptr, ptr %7, align 8
  %94 = load ptr, ptr %15, align 8
  %95 = getelementptr inbounds nuw %struct.IndexClause, ptr %94, i32 0, i32 1
  store ptr %93, ptr %95, align 8
  %96 = load ptr, ptr %6, align 8
  %97 = load ptr, ptr %11, align 8
  %98 = call ptr @make_restrictinfo(ptr noundef %96, ptr noundef %97, i1 noundef zeroext true, i1 noundef zeroext false, i1 noundef zeroext false, i1 noundef zeroext false, i32 noundef 0, ptr noundef null, ptr noundef null, ptr noundef null)
  store ptr %98, ptr %16, align 8
  %99 = getelementptr inbounds nuw %union.ListCell, ptr %16, i32 0, i32 0
  %100 = load ptr, ptr %99, align 8
  %101 = call ptr @list_make1_impl(i32 noundef 1, ptr %100)
  %102 = load ptr, ptr %15, align 8
  %103 = getelementptr inbounds nuw %struct.IndexClause, ptr %102, i32 0, i32 2
  store ptr %101, ptr %103, align 8
  %104 = load ptr, ptr %15, align 8
  %105 = getelementptr inbounds nuw %struct.IndexClause, ptr %104, i32 0, i32 3
  store i8 0, ptr %105, align 8
  %106 = load i32, ptr %8, align 4
  %107 = trunc i32 %106 to i16
  %108 = load ptr, ptr %15, align 8
  %109 = getelementptr inbounds nuw %struct.IndexClause, ptr %108, i32 0, i32 4
  store i16 %107, ptr %109, align 2
  %110 = load ptr, ptr %15, align 8
  %111 = getelementptr inbounds nuw %struct.IndexClause, ptr %110, i32 0, i32 5
  store ptr null, ptr %111, align 8
  %112 = load ptr, ptr %15, align 8
  store ptr %112, ptr %5, align 8
  store i32 1, ptr %17, align 4
  call void @llvm.lifetime.end.p0(i64 8, ptr %15) #7
  br label %114

113:                                              ; preds = %88
  store ptr null, ptr %5, align 8
  store i32 1, ptr %17, align 4
  br label %114

114:                                              ; preds = %113, %91
  call void @llvm.lifetime.end.p0(i64 8, ptr %11) #7
  call void @llvm.lifetime.end.p0(i64 8, ptr %10) #7
  %115 = load ptr, ptr %5, align 8
  ret ptr %115
}