; Function Attrs: nounwind uwtable
define internal fastcc noundef ptr @match_boolean_index_clause(ptr noundef %0, ptr noundef %1, i32 noundef %2, ptr noundef readonly captures(none) %3) unnamed_addr #0 {
  %5 = getelementptr inbounds nuw i8, ptr %1, i64 8
  %6 = load ptr, ptr %5, align 8
  %7 = tail call zeroext i1 @match_index_to_operand(ptr noundef %6, i32 noundef %2, ptr noundef %3)
  br i1 %7, label %31, label %8

8:                                                ; preds = %4
  %.not.i = icmp eq ptr %6, null
  br i1 %.not.i, label %.thread41, label %9

9:                                                ; preds = %8
  %10 = load i32, ptr %6, align 4
  switch i32 %10, label %.thread41 [
    i32 21, label %is_notclause.exit
    i32 53, label %18
  ]

is_notclause.exit:                                ; preds = %9
  %11 = getelementptr inbounds nuw i8, ptr %6, i64 4
  %12 = load i32, ptr %11, align 4
  %13 = icmp eq i32 %12, 2
  br i1 %13, label %14, label %.thread41

14:                                               ; preds = %is_notclause.exit
  %15 = getelementptr i8, ptr %6, i64 8
  %.val = load ptr, ptr %15, align 8
  %16 = getelementptr i8, ptr %.val, i64 16
  %.val.val = load ptr, ptr %16, align 8
  %.val.val.val = load ptr, ptr %.val.val, align 8
  %17 = tail call zeroext i1 @match_index_to_operand(ptr noundef %.val.val.val, i32 noundef %2, ptr noundef %3)
  br i1 %17, label %31, label %.thread41

18:                                               ; preds = %9
  %19 = getelementptr inbounds nuw i8, ptr %6, i64 8
  %20 = load ptr, ptr %19, align 8
  %21 = getelementptr inbounds nuw i8, ptr %6, i64 16
  %22 = load i32, ptr %21, align 8
  %23 = icmp eq i32 %22, 0
  br i1 %23, label %24, label %26

24:                                               ; preds = %18
  %25 = tail call zeroext i1 @match_index_to_operand(ptr noundef %20, i32 noundef %2, ptr noundef %3)
  br i1 %25, label %31, label %thread-pre-split

thread-pre-split:                                 ; preds = %24
  %.pr40 = load i32, ptr %21, align 8
  br label %26

26:                                               ; preds = %thread-pre-split, %18
  %27 = phi i32 [ %.pr40, %thread-pre-split ], [ %22, %18 ]
  %28 = icmp eq i32 %27, 2
  br i1 %28, label %29, label %.thread41

29:                                               ; preds = %26
  %30 = tail call zeroext i1 @match_index_to_operand(ptr noundef %20, i32 noundef %2, ptr noundef %3)
  br i1 %30, label %31, label %.thread41

31:                                               ; preds = %29, %24, %14, %4
  %.sink45 = phi i1 [ true, %4 ], [ false, %14 ], [ true, %24 ], [ false, %29 ]
  %.sink = phi ptr [ %6, %4 ], [ %.val.val.val, %14 ], [ %20, %24 ], [ %20, %29 ]
  %32 = tail call ptr @makeBoolConst(i1 noundef zeroext %.sink45, i1 noundef zeroext false) #8
  %33 = tail call ptr @make_opclause(i32 noundef 91, i32 noundef 16, i1 noundef zeroext false, ptr noundef %.sink, ptr noundef %32, i32 noundef 0, i32 noundef 0) #8
  %.not38 = icmp eq ptr %33, null
  br i1 %.not38, label %.thread41, label %34

34:                                               ; preds = %31
  %35 = tail call noundef ptr @palloc0(i64 noundef 40) #8
  store i32 280, ptr %35, align 4
  %36 = getelementptr inbounds nuw i8, ptr %35, i64 8
  store ptr %1, ptr %36, align 8
  %37 = tail call ptr @make_restrictinfo(ptr noundef %0, ptr noundef nonnull %33, i1 noundef zeroext true, i1 noundef zeroext false, i1 noundef zeroext false, i1 noundef zeroext false, i32 noundef 0, ptr noundef null, ptr noundef null, ptr noundef null) #8
  %38 = tail call ptr @list_make1_impl(i32 noundef 1, ptr %37) #8
  %39 = getelementptr inbounds nuw i8, ptr %35, i64 16
  store ptr %38, ptr %39, align 8
  %40 = getelementptr inbounds nuw i8, ptr %35, i64 24
  store i8 0, ptr %40, align 8
  %41 = trunc i32 %2 to i16
  %42 = getelementptr inbounds nuw i8, ptr %35, i64 26
  store i16 %41, ptr %42, align 2
  %43 = getelementptr inbounds nuw i8, ptr %35, i64 32
  store ptr null, ptr %43, align 8
  br label %.thread41

.thread41:                                        ; preds = %9, %is_notclause.exit, %8, %26, %29, %14, %31, %34
  %.0 = phi ptr [ %35, %34 ], [ null, %31 ], [ null, %14 ], [ null, %29 ], [ null, %26 ], [ null, %8 ], [ null, %is_notclause.exit ], [ null, %9 ]
  ret ptr %.0
}